; ModuleID = 'source-C-CXX/14/2112.cpp'
source_filename = "source-C-CXX/14/2112.cpp"
target datalayout = "e-m:e-p270:32:32-p271:32:32-p272:64:64-i64:64-f80:128-n8:16:32:64-S128"
target triple = "x86_64-pc-linux-gnu"

%"class.std::ios_base::Init" = type { i8 }
%"class.std::basic_istream" = type { i32 (...)**, i64, %"class.std::basic_ios" }
%"class.std::basic_ios" = type { %"class.std::ios_base", %"class.std::basic_ostream"*, i8, i8, %"class.std::basic_streambuf"*, %"class.std::ctype"*, %"class.std::num_put"*, %"class.std::num_get"* }
%"class.std::ios_base" = type { i32 (...)**, i64, i64, i32, i32, i32, %"struct.std::ios_base::_Callback_list"*, %"struct.std::ios_base::_Words", [8 x %"struct.std::ios_base::_Words"], i32, %"struct.std::ios_base::_Words"*, %"class.std::locale" }
%"struct.std::ios_base::_Callback_list" = type { %"struct.std::ios_base::_Callback_list"*, void (i32, %"class.std::ios_base"*, i32)*, i32, i32 }
%"struct.std::ios_base::_Words" = type { i8*, i64 }
%"class.std::locale" = type { %"class.std::locale::_Impl"* }
%"class.std::locale::_Impl" = type { i32, %"class.std::locale::facet"**, i64, %"class.std::locale::facet"**, i8** }
%"class.std::locale::facet" = type <{ i32 (...)**, i32, [4 x i8] }>
%"class.std::basic_ostream" = type { i32 (...)**, %"class.std::basic_ios" }
%"class.std::basic_streambuf" = type { i32 (...)**, i8*, i8*, i8*, i8*, i8*, i8*, %"class.std::locale" }
%"class.std::ctype" = type <{ %"class.std::locale::facet.base", [4 x i8], %struct.__locale_struct*, i8, [7 x i8], i32*, i32*, i16*, i8, [256 x i8], [256 x i8], i8, [6 x i8] }>
%"class.std::locale::facet.base" = type <{ i32 (...)**, i32 }>
%struct.__locale_struct = type { [13 x %struct.__locale_data*], i16*, i32*, i32*, [13 x i8*] }
%struct.__locale_data = type opaque
%"class.std::num_put" = type { %"class.std::locale::facet.base", [4 x i8] }
%"class.std::num_get" = type { %"class.std::locale::facet.base", [4 x i8] }

@_ZStL8__ioinit = internal global %"class.std::ios_base::Init" zeroinitializer, align 1
@__dso_handle = external hidden global i8
@_ZSt3cin = external global %"class.std::basic_istream", align 8
@_ZSt4cout = external global %"class.std::basic_ostream", align 8
@llvm.global_ctors = appending global [1 x { i32, void ()*, i8* }] [{ i32, void ()*, i8* } { i32 65535, void ()* @_GLOBAL__sub_I_2112.cpp, i8* null }]

declare void @_ZNSt8ios_base4InitC1Ev(%"class.std::ios_base::Init"* nonnull align 1 dereferenceable(1)) unnamed_addr #0

; Function Attrs: nounwind
declare void @_ZNSt8ios_base4InitD1Ev(%"class.std::ios_base::Init"* nonnull align 1 dereferenceable(1)) unnamed_addr #1

; Function Attrs: nofree nounwind
declare i32 @__cxa_atexit(void (i8*)*, i8*, i8*) local_unnamed_addr #2

; Function Attrs: mustprogress norecurse sspstrong uwtable
define dso_local i32 @main() local_unnamed_addr #3 {
  %1 = alloca i32, align 4
  %2 = bitcast i32* %1 to i8*
  call void @llvm.lifetime.start.p0i8(i64 4, i8* nonnull %2) #9
  %3 = call nonnull align 8 dereferenceable(16) %"class.std::basic_istream"* @_ZNSirsERi(%"class.std::basic_istream"* nonnull align 8 dereferenceable(16) @_ZSt3cin, i32* nonnull align 4 dereferenceable(4) %1)
  %4 = load i32, i32* %1, align 4, !tbaa !5
  %5 = zext i32 %4 to i64
  %6 = call i8* @llvm.stacksave()
  %7 = alloca i32, i64 %5, align 16
  %8 = load i32, i32* %1, align 4, !tbaa !5
  %9 = icmp slt i32 %8, 1
  br i1 %9, label %147, label %10

10:                                               ; preds = %0, %142
  %11 = phi i32 [ %143, %142 ], [ %8, %0 ]
  %12 = phi i32 [ %144, %142 ], [ 0, %0 ]
  %13 = phi i32 [ %145, %142 ], [ 1, %0 ]
  %14 = icmp sgt i32 %11, 0
  br i1 %14, label %20, label %142

15:                                               ; preds = %20
  %16 = icmp sgt i32 %25, 0
  br i1 %16, label %17, label %142

17:                                               ; preds = %15
  %18 = zext i32 %25 to i64
  %19 = zext i32 %25 to i64
  br label %28

20:                                               ; preds = %10, %20
  %21 = phi i64 [ %24, %20 ], [ 0, %10 ]
  %22 = getelementptr inbounds i32, i32* %7, i64 %21
  %23 = call nonnull align 8 dereferenceable(16) %"class.std::basic_istream"* @_ZNSirsERi(%"class.std::basic_istream"* nonnull align 8 dereferenceable(16) @_ZSt3cin, i32* nonnull align 4 dereferenceable(4) %22)
  %24 = add nuw nsw i64 %21, 1
  %25 = load i32, i32* %1, align 4, !tbaa !5
  %26 = sext i32 %25 to i64
  %27 = icmp slt i64 %24, %26
  br i1 %27, label %20, label %15, !llvm.loop !9

28:                                               ; preds = %17, %138
  %29 = phi i64 [ 0, %17 ], [ %140, %138 ]
  %30 = phi i32 [ %12, %17 ], [ %139, %138 ]
  %31 = xor i64 %29, -1
  %32 = getelementptr inbounds i32, i32* %7, i64 %29
  %33 = load i32, i32* %32, align 4, !tbaa !5
  %34 = icmp eq i32 %33, 0
  br i1 %34, label %35, label %138

35:                                               ; preds = %28, %35
  %36 = phi i64 [ %37, %35 ], [ %18, %28 ]
  %37 = add nsw i64 %36, -1
  %38 = getelementptr inbounds i32, i32* %7, i64 %37
  %39 = load i32, i32* %38, align 4, !tbaa !5
  %40 = icmp eq i32 %39, 0
  br i1 %40, label %41, label %35, !llvm.loop !11

41:                                               ; preds = %35
  %42 = shl i64 %36, 32
  %43 = ashr exact i64 %42, 32
  %44 = icmp slt i64 %29, %43
  br i1 %44, label %45, label %138

45:                                               ; preds = %41
  %46 = and i64 %36, 4294967295
  %47 = add nuw nsw i64 %29, 1
  %48 = icmp eq i64 %47, %46
  br i1 %48, label %138, label %49, !llvm.loop !12

49:                                               ; preds = %45
  %50 = add nsw i64 %46, %31
  %51 = icmp ult i64 %50, 8
  br i1 %51, label %125, label %52

52:                                               ; preds = %49
  %53 = and i64 %50, -8
  %54 = add i64 %47, %53
  %55 = insertelement <4 x i32> <i32 poison, i32 0, i32 0, i32 0>, i32 %30, i32 0
  %56 = add i64 %53, -8
  %57 = lshr exact i64 %56, 3
  %58 = add nuw nsw i64 %57, 1
  %59 = and i64 %58, 1
  %60 = icmp eq i64 %56, 0
  br i1 %60, label %98, label %61

61:                                               ; preds = %52
  %62 = and i64 %58, 4611686018427387902
  br label %63

63:                                               ; preds = %63, %61
  %64 = phi i64 [ 0, %61 ], [ %95, %63 ]
  %65 = phi <4 x i32> [ %55, %61 ], [ %93, %63 ]
  %66 = phi <4 x i32> [ zeroinitializer, %61 ], [ %94, %63 ]
  %67 = phi i64 [ %62, %61 ], [ %96, %63 ]
  %68 = add i64 %47, %64
  %69 = getelementptr inbounds i32, i32* %7, i64 %68
  %70 = bitcast i32* %69 to <4 x i32>*
  %71 = load <4 x i32>, <4 x i32>* %70, align 4, !tbaa !5
  %72 = getelementptr inbounds i32, i32* %69, i64 4
  %73 = bitcast i32* %72 to <4 x i32>*
  %74 = load <4 x i32>, <4 x i32>* %73, align 4, !tbaa !5
  %75 = icmp ne <4 x i32> %71, zeroinitializer
  %76 = icmp ne <4 x i32> %74, zeroinitializer
  %77 = zext <4 x i1> %75 to <4 x i32>
  %78 = zext <4 x i1> %76 to <4 x i32>
  %79 = add <4 x i32> %65, %77
  %80 = add <4 x i32> %66, %78
  %81 = or i64 %64, 8
  %82 = add i64 %47, %81
  %83 = getelementptr inbounds i32, i32* %7, i64 %82
  %84 = bitcast i32* %83 to <4 x i32>*
  %85 = load <4 x i32>, <4 x i32>* %84, align 4, !tbaa !5
  %86 = getelementptr inbounds i32, i32* %83, i64 4
  %87 = bitcast i32* %86 to <4 x i32>*
  %88 = load <4 x i32>, <4 x i32>* %87, align 4, !tbaa !5
  %89 = icmp ne <4 x i32> %85, zeroinitializer
  %90 = icmp ne <4 x i32> %88, zeroinitializer
  %91 = zext <4 x i1> %89 to <4 x i32>
  %92 = zext <4 x i1> %90 to <4 x i32>
  %93 = add <4 x i32> %79, %91
  %94 = add <4 x i32> %80, %92
  %95 = add nuw i64 %64, 16
  %96 = add i64 %67, -2
  %97 = icmp eq i64 %96, 0
  br i1 %97, label %98, label %63, !llvm.loop !13

98:                                               ; preds = %63, %52
  %99 = phi <4 x i32> [ undef, %52 ], [ %93, %63 ]
  %100 = phi <4 x i32> [ undef, %52 ], [ %94, %63 ]
  %101 = phi i64 [ 0, %52 ], [ %95, %63 ]
  %102 = phi <4 x i32> [ %55, %52 ], [ %93, %63 ]
  %103 = phi <4 x i32> [ zeroinitializer, %52 ], [ %94, %63 ]
  %104 = icmp eq i64 %59, 0
  br i1 %104, label %119, label %105

105:                                              ; preds = %98
  %106 = add i64 %47, %101
  %107 = getelementptr inbounds i32, i32* %7, i64 %106
  %108 = getelementptr inbounds i32, i32* %107, i64 4
  %109 = bitcast i32* %108 to <4 x i32>*
  %110 = load <4 x i32>, <4 x i32>* %109, align 4, !tbaa !5
  %111 = icmp ne <4 x i32> %110, zeroinitializer
  %112 = zext <4 x i1> %111 to <4 x i32>
  %113 = add <4 x i32> %103, %112
  %114 = bitcast i32* %107 to <4 x i32>*
  %115 = load <4 x i32>, <4 x i32>* %114, align 4, !tbaa !5
  %116 = icmp ne <4 x i32> %115, zeroinitializer
  %117 = zext <4 x i1> %116 to <4 x i32>
  %118 = add <4 x i32> %102, %117
  br label %119

119:                                              ; preds = %98, %105
  %120 = phi <4 x i32> [ %99, %98 ], [ %118, %105 ]
  %121 = phi <4 x i32> [ %100, %98 ], [ %113, %105 ]
  %122 = add <4 x i32> %121, %120
  %123 = call i32 @llvm.vector.reduce.add.v4i32(<4 x i32> %122)
  %124 = icmp eq i64 %50, %53
  br i1 %124, label %138, label %125

125:                                              ; preds = %49, %119
  %126 = phi i64 [ %47, %49 ], [ %54, %119 ]
  %127 = phi i32 [ %30, %49 ], [ %123, %119 ]
  br label %128

128:                                              ; preds = %125, %128
  %129 = phi i64 [ %136, %128 ], [ %126, %125 ]
  %130 = phi i32 [ %135, %128 ], [ %127, %125 ]
  %131 = getelementptr inbounds i32, i32* %7, i64 %129
  %132 = load i32, i32* %131, align 4, !tbaa !5
  %133 = icmp ne i32 %132, 0
  %134 = zext i1 %133 to i32
  %135 = add nsw i32 %130, %134
  %136 = add nuw nsw i64 %129, 1
  %137 = icmp eq i64 %136, %46
  br i1 %137, label %138, label %128, !llvm.loop !15

138:                                              ; preds = %128, %45, %119, %41, %28
  %139 = phi i32 [ %30, %28 ], [ %30, %41 ], [ %30, %45 ], [ %123, %119 ], [ %135, %128 ]
  %140 = add nuw nsw i64 %29, 1
  %141 = icmp eq i64 %140, %19
  br i1 %141, label %142, label %28, !llvm.loop !17

142:                                              ; preds = %138, %10, %15
  %143 = phi i32 [ %25, %15 ], [ %11, %10 ], [ %25, %138 ]
  %144 = phi i32 [ %12, %15 ], [ %12, %10 ], [ %139, %138 ]
  %145 = add nuw nsw i32 %13, 1
  %146 = icmp slt i32 %13, %143
  br i1 %146, label %10, label %147, !llvm.loop !18

147:                                              ; preds = %142, %0
  %148 = phi i32 [ 0, %0 ], [ %144, %142 ]
  %149 = call nonnull align 8 dereferenceable(8) %"class.std::basic_ostream"* @_ZNSolsEi(%"class.std::basic_ostream"* nonnull align 8 dereferenceable(8) @_ZSt4cout, i32 %148)
  %150 = bitcast %"class.std::basic_ostream"* %149 to i8**
  %151 = load i8*, i8** %150, align 8, !tbaa !20
  %152 = getelementptr i8, i8* %151, i64 -24
  %153 = bitcast i8* %152 to i64*
  %154 = load i64, i64* %153, align 8
  %155 = bitcast %"class.std::basic_ostream"* %149 to i8*
  %156 = add nsw i64 %154, 240
  %157 = getelementptr inbounds i8, i8* %155, i64 %156
  %158 = bitcast i8* %157 to %"class.std::ctype"**
  %159 = load %"class.std::ctype"*, %"class.std::ctype"** %158, align 8, !tbaa !22
  %160 = icmp eq %"class.std::ctype"* %159, null
  br i1 %160, label %161, label %162

161:                                              ; preds = %147
  call void @_ZSt16__throw_bad_castv() #10
  unreachable

162:                                              ; preds = %147
  %163 = getelementptr inbounds %"class.std::ctype", %"class.std::ctype"* %159, i64 0, i32 8
  %164 = load i8, i8* %163, align 8, !tbaa !26
  %165 = icmp eq i8 %164, 0
  br i1 %165, label %169, label %166

166:                                              ; preds = %162
  %167 = getelementptr inbounds %"class.std::ctype", %"class.std::ctype"* %159, i64 0, i32 9, i64 10
  %168 = load i8, i8* %167, align 1, !tbaa !28
  br label %175

169:                                              ; preds = %162
  call void @_ZNKSt5ctypeIcE13_M_widen_initEv(%"class.std::ctype"* nonnull align 8 dereferenceable(570) %159)
  %170 = bitcast %"class.std::ctype"* %159 to i8 (%"class.std::ctype"*, i8)***
  %171 = load i8 (%"class.std::ctype"*, i8)**, i8 (%"class.std::ctype"*, i8)*** %170, align 8, !tbaa !20
  %172 = getelementptr inbounds i8 (%"class.std::ctype"*, i8)*, i8 (%"class.std::ctype"*, i8)** %171, i64 6
  %173 = load i8 (%"class.std::ctype"*, i8)*, i8 (%"class.std::ctype"*, i8)** %172, align 8
  %174 = call signext i8 %173(%"class.std::ctype"* nonnull align 8 dereferenceable(570) %159, i8 signext 10)
  br label %175

175:                                              ; preds = %166, %169
  %176 = phi i8 [ %168, %166 ], [ %174, %169 ]
  %177 = call nonnull align 8 dereferenceable(8) %"class.std::basic_ostream"* @_ZNSo3putEc(%"class.std::basic_ostream"* nonnull align 8 dereferenceable(8) %149, i8 signext %176)
  %178 = call nonnull align 8 dereferenceable(8) %"class.std::basic_ostream"* @_ZNSo5flushEv(%"class.std::basic_ostream"* nonnull align 8 dereferenceable(8) %177)
  call void @llvm.stackrestore(i8* %6)
  call void @llvm.lifetime.end.p0i8(i64 4, i8* nonnull %2) #9
  ret i32 0
}

; Function Attrs: argmemonly mustprogress nofree nosync nounwind willreturn
declare void @llvm.lifetime.start.p0i8(i64 immarg, i8* nocapture) #4

declare nonnull align 8 dereferenceable(16) %"class.std::basic_istream"* @_ZNSirsERi(%"class.std::basic_istream"* nonnull align 8 dereferenceable(16), i32* nonnull align 4 dereferenceable(4)) local_unnamed_addr #0

; Function Attrs: mustprogress nofree nosync nounwind willreturn
declare i8* @llvm.stacksave() #5

declare nonnull align 8 dereferenceable(8) %"class.std::basic_ostream"* @_ZNSolsEi(%"class.std::basic_ostream"* nonnull align 8 dereferenceable(8), i32) local_unnamed_addr #0

; Function Attrs: argmemonly mustprogress nofree nosync nounwind willreturn
declare void @llvm.lifetime.end.p0i8(i64 immarg, i8* nocapture) #4

; Function Attrs: mustprogress nofree nosync nounwind willreturn
declare void @llvm.stackrestore(i8*) #5

declare nonnull align 8 dereferenceable(8) %"class.std::basic_ostream"* @_ZNSo3putEc(%"class.std::basic_ostream"* nonnull align 8 dereferenceable(8), i8 signext) local_unnamed_addr #0

declare nonnull align 8 dereferenceable(8) %"class.std::basic_ostream"* @_ZNSo5flushEv(%"class.std::basic_ostream"* nonnull align 8 dereferenceable(8)) local_unnamed_addr #0

; Function Attrs: noreturn
declare void @_ZSt16__throw_bad_castv() local_unnamed_addr #6

declare void @_ZNKSt5ctypeIcE13_M_widen_initEv(%"class.std::ctype"* nonnull align 8 dereferenceable(570)) local_unnamed_addr #0

; Function Attrs: sspstrong uwtable
define internal void @_GLOBAL__sub_I_2112.cpp() #7 section ".text.startup" {
  tail call void @_ZNSt8ios_base4InitC1Ev(%"class.std::ios_base::Init"* nonnull align 1 dereferenceable(1) @_ZStL8__ioinit)
  %1 = tail call i32 @__cxa_atexit(void (i8*)* bitcast (void (%"class.std::ios_base::Init"*)* @_ZNSt8ios_base4InitD1Ev to void (i8*)*), i8* getelementptr inbounds (%"class.std::ios_base::Init", %"class.std::ios_base::Init"* @_ZStL8__ioinit, i64 0, i32 0), i8* nonnull @__dso_handle) #9
  ret void
}

; Function Attrs: nofree nosync nounwind readnone willreturn
declare i32 @llvm.vector.reduce.add.v4i32(<4 x i32>) #8


!llvm.module.flags = !{!0, !1, !2, !3}
!llvm.ident = !{!4}

!0 = !{i32 1, !"wchar_size", i32 4}
!1 = !{i32 7, !"PIC Level", i32 2}
!2 = !{i32 7, !"PIE Level", i32 2}
!3 = !{i32 7, !"uwtable", i32 1}
!4 = !{!"clang version 13.0.0"}
!5 = !{!6, !6, i64 0}
!6 = !{!"int", !7, i64 0}
!7 = !{!"omnipotent char", !8, i64 0}
!8 = !{!"Simple C++ TBAA"}
!9 = distinct !{!9, !10}
!10 = !{!"llvm.loop.mustprogress"}
!11 = distinct !{!11, !10}
!12 = distinct !{!12, !10}
!13 = distinct !{!13, !10, !14}
!14 = !{!"llvm.loop.isvectorized", i32 1}
!15 = distinct !{!15, !10, !16, !14}
!16 = !{!"llvm.loop.unroll.runtime.disable"}
!17 = distinct !{!17, !10}
!18 = distinct !{!18, !10, !19}
!19 = !{!"llvm.loop.unswitch.partial.disable"}
!20 = !{!21, !21, i64 0}
!21 = !{!"vtable pointer", !8, i64 0}
!22 = !{!23, !24, i64 240}
!23 = !{!"_ZTSSt9basic_iosIcSt11char_traitsIcEE", !24, i64 216, !7, i64 224, !25, i64 225, !24, i64 232, !24, i64 240, !24, i64 248, !24, i64 256}
!24 = !{!"any pointer", !7, i64 0}
!25 = !{!"bool", !7, i64 0}
!26 = !{!27, !7, i64 56}
!27 = !{!"_ZTSSt5ctypeIcE", !24, i64 16, !25, i64 24, !24, i64 32, !24, i64 40, !24, i64 48, !7, i64 56, !7, i64 57, !7, i64 313, !7, i64 569}
!28 = !{!7, !7, i64 0}
